; ModuleID = '1/1593.c'
source_filename = "1/1593.c"
target datalayout = "e-m:e-p270:32:32-p271:32:32-p272:64:64-i64:64-f80:128-n8:16:32:64-S128"
target triple = "x86_64-pc-linux-gnu"

@.str = private unnamed_addr constant [3 x i8] c"%d\00", align 1
@.str.1 = private unnamed_addr constant [4 x i8] c"%d\0A\00", align 1

; Function Attrs: noinline nounwind uwtable
define dso_local i32 @main() #0 {
  %1 = alloca i32, align 4
  %2 = alloca i32, align 4
  %3 = alloca [100 x i32], align 16
  %4 = alloca i32, align 4
  store i32 0, i32* %1, align 4
  store i32 0, i32* %4, align 4
  br label %5

5:                                                ; preds = %12, %0
  %6 = load i32, i32* %4, align 4
  %7 = icmp slt i32 %6, 100
  br i1 %7, label %8, label %15

8:                                                ; preds = %5
  %9 = load i32, i32* %4, align 4
  %10 = sext i32 %9 to i64
  %11 = getelementptr inbounds [100 x i32], [100 x i32]* %3, i64 0, i64 %10
  store i32 0, i32* %11, align 4
  br label %12

12:                                               ; preds = %8
  %13 = load i32, i32* %4, align 4
  %14 = add nsw i32 %13, 1
  store i32 %14, i32* %4, align 4
  br label %5

15:                                               ; preds = %5
  %16 = call i32 (i8*, ...) @__isoc99_scanf(i8* getelementptr inbounds ([3 x i8], [3 x i8]* @.str, i64 0, i64 0), i32* %2)
  store i32 0, i32* %4, align 4
  br label %17

17:                                               ; preds = %34, %15
  %18 = load i32, i32* %4, align 4
  %19 = load i32, i32* %2, align 4
  %20 = icmp slt i32 %18, %19
  br i1 %20, label %21, label %37

21:                                               ; preds = %17
  %22 = load i32, i32* %4, align 4
  %23 = sext i32 %22 to i64
  %24 = getelementptr inbounds [100 x i32], [100 x i32]* %3, i64 0, i64 %23
  %25 = call i32 (i8*, ...) @__isoc99_scanf(i8* getelementptr inbounds ([3 x i8], [3 x i8]* @.str, i64 0, i64 0), i32* %24)
  %26 = load i32, i32* %4, align 4
  %27 = sext i32 %26 to i64
  %28 = getelementptr inbounds [100 x i32], [100 x i32]* %3, i64 0, i64 %27
  %29 = load i32, i32* %28, align 4
  %30 = call i32 @f(i32 %29, i32 2)
  %31 = load i32, i32* %4, align 4
  %32 = sext i32 %31 to i64
  %33 = getelementptr inbounds [100 x i32], [100 x i32]* %3, i64 0, i64 %32
  store i32 %30, i32* %33, align 4
  br label %34

34:                                               ; preds = %21
  %35 = load i32, i32* %4, align 4
  %36 = add nsw i32 %35, 1
  store i32 %36, i32* %4, align 4
  br label %17

37:                                               ; preds = %17
  store i32 0, i32* %4, align 4
  br label %38

38:                                               ; preds = %48, %37
  %39 = load i32, i32* %4, align 4
  %40 = load i32, i32* %2, align 4
  %41 = icmp slt i32 %39, %40
  br i1 %41, label %42, label %51

42:                                               ; preds = %38
  %43 = load i32, i32* %4, align 4
  %44 = sext i32 %43 to i64
  %45 = getelementptr inbounds [100 x i32], [100 x i32]* %3, i64 0, i64 %44
  %46 = load i32, i32* %45, align 4
  %47 = call i32 (i8*, ...) @printf(i8* getelementptr inbounds ([4 x i8], [4 x i8]* @.str.1, i64 0, i64 0), i32 %46)
  br label %48

48:                                               ; preds = %42
  %49 = load i32, i32* %4, align 4
  %50 = add nsw i32 %49, 1
  store i32 %50, i32* %4, align 4
  br label %38

51:                                               ; preds = %38
  ret i32 0
}

declare dso_local i32 @__isoc99_scanf(i8*, ...) #1

; Function Attrs: noinline nounwind uwtable
define dso_local i32 @f(i32 %0, i32 %1) #0 {
  %3 = alloca i32, align 4
  %4 = alloca i32, align 4
  %5 = alloca i32, align 4
  %6 = alloca i32, align 4
  store i32 %0, i32* %3, align 4
  store i32 %1, i32* %4, align 4
  store i32 0, i32* %5, align 4
  %7 = load i32, i32* %3, align 4
  %8 = icmp eq i32 %7, 1
  br i1 %8, label %9, label %10

9:                                                ; preds = %2
  store i32 1, i32* %5, align 4
  br label %34

10:                                               ; preds = %2
  %11 = load i32, i32* %4, align 4
  store i32 %11, i32* %6, align 4
  br label %12

12:                                               ; preds = %30, %10
  %13 = load i32, i32* %6, align 4
  %14 = load i32, i32* %3, align 4
  %15 = icmp sle i32 %13, %14
  br i1 %15, label %16, label %33

16:                                               ; preds = %12
  %17 = load i32, i32* %3, align 4
  %18 = load i32, i32* %6, align 4
  %19 = srem i32 %17, %18
  %20 = icmp eq i32 %19, 0
  br i1 %20, label %21, label %29

21:                                               ; preds = %16
  %22 = load i32, i32* %5, align 4
  %23 = load i32, i32* %3, align 4
  %24 = load i32, i32* %6, align 4
  %25 = sdiv i32 %23, %24
  %26 = load i32, i32* %6, align 4
  %27 = call i32 @f(i32 %25, i32 %26)
  %28 = add nsw i32 %22, %27
  store i32 %28, i32* %5, align 4
  br label %29

29:                                               ; preds = %21, %16
  br label %30

30:                                               ; preds = %29
  %31 = load i32, i32* %6, align 4
  %32 = add nsw i32 %31, 1
  store i32 %32, i32* %6, align 4
  br label %12

33:                                               ; preds = %12
  br label %34

34:                                               ; preds = %33, %9
  %35 = load i32, i32* %5, align 4
  ret i32 %35
}

declare dso_local i32 @printf(i8*, ...) #1


!llvm.module.flags = !{!0}
!llvm.ident = !{!1}

!0 = !{i32 1, !"wchar_size", i32 4}
!1 = !{!"clang version 10.0.0-4ubuntu1 "}
